; Function Attrs: mustprogress uwtable
define void @_ZN3gmx15OptionsAssignerC2EPNS_7OptionsE(ptr noundef nonnull writeonly align 8 captures(none) dereferenceable(8) %0, ptr noundef %1) unnamed_addr #0 align 2 personality ptr @__gxx_personality_v0 {
  %3 = tail call noalias noundef nonnull dereferenceable(56) ptr @_Znwm(i64 noundef 56) #19
  invoke void @_ZN3gmx15OptionsAssigner4ImplC1EPNS_7OptionsE(ptr noundef nonnull align 8 dereferenceable(53) %3, ptr noundef %1)
          to label %4 unwind label %5

4:                                                ; preds = %2
  store ptr %3, ptr %0, align 8, !tbaa !32
  ret void

5:                                                ; preds = %2
  %6 = landingpad { ptr, i32 }
          cleanup
  tail call void @_ZdlPvm(ptr noundef nonnull %3, i64 noundef 56) #21
  resume { ptr, i32 } %6
}